target datalayout = "e-m:e-p270:32:32-p271:32:32-p272:64:64-i64:64-i128:128-f80:128-n8:16:32:64-S128"
target triple = "x86_64-pc-linux-gnu"

%struct.AGMContext = type { ptr, ptr, %struct.GetBitContext, %struct.GetByteContext, i32, i32, i32, i32, i32, [3 x i32], i32, i32, i32, i32, i32, ptr, i32, i32, ptr, i32, %struct.VLC, ptr, [64 x i32], [64 x i32], [64 x i8], [64 x i16], ptr, i32, ptr, i32, %struct.IDCTDSPContext, [8 x i8] }
%struct.GetBitContext = type { ptr, ptr, i32, i32, i32 }
%struct.GetByteContext = type { ptr, ptr, ptr }
%struct.VLC = type { i32, ptr, i32, i32 }
%struct.IDCTDSPContext = type { ptr, ptr, ptr, ptr, ptr, ptr, [64 x i8], i32, i32 }

@ff_zigzag_direct = external constant [64 x i8], align 16
@ff_mjpeg_std_luminance_quant_tbl = external hidden constant [64 x i8], align 16
@ff_mjpeg_std_chrominance_quant_tbl = external hidden constant [64 x i8], align 16

; Function Attrs: nounwind uwtable
define internal void @compute_quant_matrix(ptr noundef %0, double noundef %1) #1 {
  %3 = alloca ptr, align 8
  %4 = alloca double, align 8
  %5 = alloca [64 x i32], align 16
  %6 = alloca [64 x i32], align 16
  %7 = alloca double, align 8
  %8 = alloca i32, align 4
  %9 = alloca i32, align 4
  %10 = alloca i32, align 4
  %11 = alloca i32, align 4
  %12 = alloca i32, align 4
  %13 = alloca i32, align 4
  store ptr %0, ptr %3, align 8, !tbaa !29
  store double %1, ptr %4, align 8, !tbaa !137
  call void @llvm.lifetime.start.p0(i64 256, ptr %5) #10
  call void @llvm.lifetime.start.p0(i64 256, ptr %6) #10
  call void @llvm.lifetime.start.p0(i64 8, ptr %7) #10
  %14 = load double, ptr %4, align 8, !tbaa !137
  %15 = call nsz double @llvm.fabs.f64(double %14)
  %16 = fsub nsz double 1.000000e+00, %15
  store double %16, ptr %7, align 8, !tbaa !137
  %17 = load ptr, ptr %3, align 8, !tbaa !29
  %18 = getelementptr inbounds nuw %struct.AGMContext, ptr %17, i32 0, i32 4
  %19 = load i32, ptr %18, align 8, !tbaa !64
  %20 = icmp ne i32 %19, 0
  br i1 %20, label %107, label %21

21:                                               ; preds = %2
  %22 = load ptr, ptr %3, align 8, !tbaa !29
  %23 = getelementptr inbounds nuw %struct.AGMContext, ptr %22, i32 0, i32 13
  %24 = load i32, ptr %23, align 4, !tbaa !74
  %25 = and i32 %24, 2
  %26 = icmp ne i32 %25, 0
  br i1 %26, label %27, label %107

27:                                               ; preds = %21
  %28 = load double, ptr %4, align 8, !tbaa !137
  %29 = fcmp nsz oge double %28, 0.000000e+00
  br i1 %29, label %30, label %66

30:                                               ; preds = %27
  call void @llvm.lifetime.start.p0(i64 4, ptr %8) #10
  store i32 0, ptr %8, align 4, !tbaa !60
  br label %31

31:                                               ; preds = %62, %30
  %32 = load i32, ptr %8, align 4, !tbaa !60
  %33 = icmp slt i32 %32, 64
  br i1 %33, label %35, label %34

34:                                               ; preds = %31
  call void @llvm.lifetime.end.p0(i64 4, ptr %8) #10
  br label %65

35:                                               ; preds = %31
  %36 = load double, ptr %7, align 8, !tbaa !137
  %37 = fmul nsz double 1.600000e+01, %36
  %38 = fcmp nsz ogt double 1.000000e+00, %37
  br i1 %38, label %39, label %40

39:                                               ; preds = %35
  br label %43

40:                                               ; preds = %35
  %41 = load double, ptr %7, align 8, !tbaa !137
  %42 = fmul nsz double 1.600000e+01, %41
  br label %43

43:                                               ; preds = %40, %39
  %44 = phi nsz double [ 1.000000e+00, %39 ], [ %42, %40 ]
  %45 = fptosi double %44 to i32
  %46 = load i32, ptr %8, align 4, !tbaa !60
  %47 = sext i32 %46 to i64
  %48 = getelementptr inbounds [64 x i32], ptr %5, i64 0, i64 %47
  store i32 %45, ptr %48, align 4, !tbaa !60
  %49 = load double, ptr %7, align 8, !tbaa !137
  %50 = fmul nsz double 1.600000e+01, %49
  %51 = fcmp nsz ogt double 1.000000e+00, %50
  br i1 %51, label %52, label %53

52:                                               ; preds = %43
  br label %56

53:                                               ; preds = %43
  %54 = load double, ptr %7, align 8, !tbaa !137
  %55 = fmul nsz double 1.600000e+01, %54
  br label %56

56:                                               ; preds = %53, %52
  %57 = phi nsz double [ 1.000000e+00, %52 ], [ %55, %53 ]
  %58 = fptosi double %57 to i32
  %59 = load i32, ptr %8, align 4, !tbaa !60
  %60 = sext i32 %59 to i64
  %61 = getelementptr inbounds [64 x i32], ptr %6, i64 0, i64 %60
  store i32 %58, ptr %61, align 4, !tbaa !60
  br label %62

62:                                               ; preds = %56
  %63 = load i32, ptr %8, align 4, !tbaa !60
  %64 = add nsw i32 %63, 1
  store i32 %64, ptr %8, align 4, !tbaa !60
  br label %31, !llvm.loop !139

65:                                               ; preds = %34
  br label %106

66:                                               ; preds = %27
  call void @llvm.lifetime.start.p0(i64 4, ptr %9) #10
  store i32 0, ptr %9, align 4, !tbaa !60
  br label %67

67:                                               ; preds = %102, %66
  %68 = load i32, ptr %9, align 4, !tbaa !60
  %69 = icmp slt i32 %68, 64
  br i1 %69, label %71, label %70

70:                                               ; preds = %67
  call void @llvm.lifetime.end.p0(i64 4, ptr %9) #10
  br label %105

71:                                               ; preds = %67
  %72 = load double, ptr %4, align 8, !tbaa !137
  %73 = fneg nsz double %72
  %74 = call nsz double @llvm.fmuladd.f64(double %73, double 3.200000e+01, double 1.600000e+01)
  %75 = fcmp nsz ogt double 1.000000e+00, %74
  br i1 %75, label %76, label %77

76:                                               ; preds = %71
  br label %81

77:                                               ; preds = %71
  %78 = load double, ptr %4, align 8, !tbaa !137
  %79 = fneg nsz double %78
  %80 = call nsz double @llvm.fmuladd.f64(double %79, double 3.200000e+01, double 1.600000e+01)
  br label %81

81:                                               ; preds = %77, %76
  %82 = phi nsz double [ 1.000000e+00, %76 ], [ %80, %77 ]
  %83 = fptosi double %82 to i32
  %84 = load i32, ptr %9, align 4, !tbaa !60
  %85 = sext i32 %84 to i64
  %86 = getelementptr inbounds [64 x i32], ptr %5, i64 0, i64 %85
  store i32 %83, ptr %86, align 4, !tbaa !60
  %87 = load double, ptr %4, align 8, !tbaa !137
  %88 = fneg nsz double %87
  %89 = call nsz double @llvm.fmuladd.f64(double %88, double 3.200000e+01, double 1.600000e+01)
  %90 = fcmp nsz ogt double 1.000000e+00, %89
  br i1 %90, label %91, label %92

91:                                               ; preds = %81
  br label %96

92:                                               ; preds = %81
  %93 = load double, ptr %4, align 8, !tbaa !137
  %94 = fneg nsz double %93
  %95 = call nsz double @llvm.fmuladd.f64(double %94, double 3.200000e+01, double 1.600000e+01)
  br label %96

96:                                               ; preds = %92, %91
  %97 = phi nsz double [ 1.000000e+00, %91 ], [ %95, %92 ]
  %98 = fptosi double %97 to i32
  %99 = load i32, ptr %9, align 4, !tbaa !60
  %100 = sext i32 %99 to i64
  %101 = getelementptr inbounds [64 x i32], ptr %6, i64 0, i64 %100
  store i32 %98, ptr %101, align 4, !tbaa !60
  br label %102

102:                                              ; preds = %96
  %103 = load i32, ptr %9, align 4, !tbaa !60
  %104 = add nsw i32 %103, 1
  store i32 %104, ptr %9, align 4, !tbaa !60
  br label %67, !llvm.loop !140

105:                                              ; preds = %70
  br label %106

106:                                              ; preds = %105, %65
  br label %279

107:                                              ; preds = %21, %2
  %108 = load double, ptr %4, align 8, !tbaa !137
  %109 = fcmp nsz oge double %108, 0.000000e+00
  br i1 %109, label %110, label %190

110:                                              ; preds = %107
  call void @llvm.lifetime.start.p0(i64 4, ptr %10) #10
  store i32 0, ptr %10, align 4, !tbaa !60
  br label %111

111:                                              ; preds = %186, %110
  %112 = load i32, ptr %10, align 4, !tbaa !60
  %113 = icmp slt i32 %112, 64
  br i1 %113, label %115, label %114

114:                                              ; preds = %111
  call void @llvm.lifetime.end.p0(i64 4, ptr %10) #10
  br label %189

115:                                              ; preds = %111
  %116 = load i32, ptr %10, align 4, !tbaa !60
  %117 = and i32 %116, 7
  %118 = mul nsw i32 %117, 8
  %119 = load i32, ptr %10, align 4, !tbaa !60
  %120 = ashr i32 %119, 3
  %121 = add nsw i32 %118, %120
  %122 = sext i32 %121 to i64
  %123 = getelementptr inbounds [64 x i8], ptr @ff_mjpeg_std_luminance_quant_tbl, i64 0, i64 %122
  %124 = load i8, ptr %123, align 1, !tbaa !94
  %125 = zext i8 %124 to i32
  %126 = sitofp i32 %125 to double
  %127 = load double, ptr %7, align 8, !tbaa !137
  %128 = fmul nsz double %126, %127
  %129 = fcmp nsz ogt double 1.000000e+00, %128
  br i1 %129, label %130, label %131

130:                                              ; preds = %115
  br label %145

131:                                              ; preds = %115
  %132 = load i32, ptr %10, align 4, !tbaa !60
  %133 = and i32 %132, 7
  %134 = mul nsw i32 %133, 8
  %135 = load i32, ptr %10, align 4, !tbaa !60
  %136 = ashr i32 %135, 3
  %137 = add nsw i32 %134, %136
  %138 = sext i32 %137 to i64
  %139 = getelementptr inbounds [64 x i8], ptr @ff_mjpeg_std_luminance_quant_tbl, i64 0, i64 %138
  %140 = load i8, ptr %139, align 1, !tbaa !94
  %141 = zext i8 %140 to i32
  %142 = sitofp i32 %141 to double
  %143 = load double, ptr %7, align 8, !tbaa !137
  %144 = fmul nsz double %142, %143
  br label %145

145:                                              ; preds = %131, %130
  %146 = phi nsz double [ 1.000000e+00, %130 ], [ %144, %131 ]
  %147 = fptosi double %146 to i32
  %148 = load i32, ptr %10, align 4, !tbaa !60
  %149 = sext i32 %148 to i64
  %150 = getelementptr inbounds [64 x i32], ptr %5, i64 0, i64 %149
  store i32 %147, ptr %150, align 4, !tbaa !60
  %151 = load i32, ptr %10, align 4, !tbaa !60
  %152 = and i32 %151, 7
  %153 = mul nsw i32 %152, 8
  %154 = load i32, ptr %10, align 4, !tbaa !60
  %155 = ashr i32 %154, 3
  %156 = add nsw i32 %153, %155
  %157 = sext i32 %156 to i64
  %158 = getelementptr inbounds [64 x i8], ptr @ff_mjpeg_std_chrominance_quant_tbl, i64 0, i64 %157
  %159 = load i8, ptr %158, align 1, !tbaa !94
  %160 = zext i8 %159 to i32
  %161 = sitofp i32 %160 to double
  %162 = load double, ptr %7, align 8, !tbaa !137
  %163 = fmul nsz double %161, %162
  %164 = fcmp nsz ogt double 1.000000e+00, %163
  br i1 %164, label %165, label %166

165:                                              ; preds = %145
  br label %180

166:                                              ; preds = %145
  %167 = load i32, ptr %10, align 4, !tbaa !60
  %168 = and i32 %167, 7
  %169 = mul nsw i32 %168, 8
  %170 = load i32, ptr %10, align 4, !tbaa !60
  %171 = ashr i32 %170, 3
  %172 = add nsw i32 %169, %171
  %173 = sext i32 %172 to i64
  %174 = getelementptr inbounds [64 x i8], ptr @ff_mjpeg_std_chrominance_quant_tbl, i64 0, i64 %173
  %175 = load i8, ptr %174, align 1, !tbaa !94
  %176 = zext i8 %175 to i32
  %177 = sitofp i32 %176 to double
  %178 = load double, ptr %7, align 8, !tbaa !137
  %179 = fmul nsz double %177, %178
  br label %180

180:                                              ; preds = %166, %165
  %181 = phi nsz double [ 1.000000e+00, %165 ], [ %179, %166 ]
  %182 = fptosi double %181 to i32
  %183 = load i32, ptr %10, align 4, !tbaa !60
  %184 = sext i32 %183 to i64
  %185 = getelementptr inbounds [64 x i32], ptr %6, i64 0, i64 %184
  store i32 %182, ptr %185, align 4, !tbaa !60
  br label %186

186:                                              ; preds = %180
  %187 = load i32, ptr %10, align 4, !tbaa !60
  %188 = add nsw i32 %187, 1
  store i32 %188, ptr %10, align 4, !tbaa !60
  br label %111, !llvm.loop !141

189:                                              ; preds = %114
  br label %278

190:                                              ; preds = %107
  call void @llvm.lifetime.start.p0(i64 4, ptr %11) #10
  store i32 0, ptr %11, align 4, !tbaa !60
  br label %191

191:                                              ; preds = %274, %190
  %192 = load i32, ptr %11, align 4, !tbaa !60
  %193 = icmp slt i32 %192, 64
  br i1 %193, label %195, label %194

194:                                              ; preds = %191
  call void @llvm.lifetime.end.p0(i64 4, ptr %11) #10
  br label %277

195:                                              ; preds = %191
  %196 = load i32, ptr %11, align 4, !tbaa !60
  %197 = and i32 %196, 7
  %198 = mul nsw i32 %197, 8
  %199 = load i32, ptr %11, align 4, !tbaa !60
  %200 = ashr i32 %199, 3
  %201 = add nsw i32 %198, %200
  %202 = sext i32 %201 to i64
  %203 = getelementptr inbounds [64 x i8], ptr @ff_mjpeg_std_luminance_quant_tbl, i64 0, i64 %202
  %204 = load i8, ptr %203, align 1, !tbaa !94
  %205 = zext i8 %204 to i32
  %206 = sub nsw i32 255, %205
  %207 = sitofp i32 %206 to double
  %208 = load double, ptr %7, align 8, !tbaa !137
  %209 = fneg nsz double %207
  %210 = call nsz double @llvm.fmuladd.f64(double %209, double %208, double 2.550000e+02)
  %211 = fcmp nsz ogt double 1.000000e+00, %210
  br i1 %211, label %212, label %213

212:                                              ; preds = %195
  br label %229

213:                                              ; preds = %195
  %214 = load i32, ptr %11, align 4, !tbaa !60
  %215 = and i32 %214, 7
  %216 = mul nsw i32 %215, 8
  %217 = load i32, ptr %11, align 4, !tbaa !60
  %218 = ashr i32 %217, 3
  %219 = add nsw i32 %216, %218
  %220 = sext i32 %219 to i64
  %221 = getelementptr inbounds [64 x i8], ptr @ff_mjpeg_std_luminance_quant_tbl, i64 0, i64 %220
  %222 = load i8, ptr %221, align 1, !tbaa !94
  %223 = zext i8 %222 to i32
  %224 = sub nsw i32 255, %223
  %225 = sitofp i32 %224 to double
  %226 = load double, ptr %7, align 8, !tbaa !137
  %227 = fneg nsz double %225
  %228 = call nsz double @llvm.fmuladd.f64(double %227, double %226, double 2.550000e+02)
  br label %229

229:                                              ; preds = %213, %212
  %230 = phi nsz double [ 1.000000e+00, %212 ], [ %228, %213 ]
  %231 = fptosi double %230 to i32
  %232 = load i32, ptr %11, align 4, !tbaa !60
  %233 = sext i32 %232 to i64
  %234 = getelementptr inbounds [64 x i32], ptr %5, i64 0, i64 %233
  store i32 %231, ptr %234, align 4, !tbaa !60
  %235 = load i32, ptr %11, align 4, !tbaa !60
  %236 = and i32 %235, 7
  %237 = mul nsw i32 %236, 8
  %238 = load i32, ptr %11, align 4, !tbaa !60
  %239 = ashr i32 %238, 3
  %240 = add nsw i32 %237, %239
  %241 = sext i32 %240 to i64
  %242 = getelementptr inbounds [64 x i8], ptr @ff_mjpeg_std_chrominance_quant_tbl, i64 0, i64 %241
  %243 = load i8, ptr %242, align 1, !tbaa !94
  %244 = zext i8 %243 to i32
  %245 = sub nsw i32 255, %244
  %246 = sitofp i32 %245 to double
  %247 = load double, ptr %7, align 8, !tbaa !137
  %248 = fneg nsz double %246
  %249 = call nsz double @llvm.fmuladd.f64(double %248, double %247, double 2.550000e+02)
  %250 = fcmp nsz ogt double 1.000000e+00, %249
  br i1 %250, label %251, label %252

251:                                              ; preds = %229
  br label %268

252:                                              ; preds = %229
  %253 = load i32, ptr %11, align 4, !tbaa !60
  %254 = and i32 %253, 7
  %255 = mul nsw i32 %254, 8
  %256 = load i32, ptr %11, align 4, !tbaa !60
  %257 = ashr i32 %256, 3
  %258 = add nsw i32 %255, %257
  %259 = sext i32 %258 to i64
  %260 = getelementptr inbounds [64 x i8], ptr @ff_mjpeg_std_chrominance_quant_tbl, i64 0, i64 %259
  %261 = load i8, ptr %260, align 1, !tbaa !94
  %262 = zext i8 %261 to i32
  %263 = sub nsw i32 255, %262
  %264 = sitofp i32 %263 to double
  %265 = load double, ptr %7, align 8, !tbaa !137
  %266 = fneg nsz double %264
  %267 = call nsz double @llvm.fmuladd.f64(double %266, double %265, double 2.550000e+02)
  br label %268

268:                                              ; preds = %252, %251
  %269 = phi nsz double [ 1.000000e+00, %251 ], [ %267, %252 ]
  %270 = fptosi double %269 to i32
  %271 = load i32, ptr %11, align 4, !tbaa !60
  %272 = sext i32 %271 to i64
  %273 = getelementptr inbounds [64 x i32], ptr %6, i64 0, i64 %272
  store i32 %270, ptr %273, align 4, !tbaa !60
  br label %274

274:                                              ; preds = %268
  %275 = load i32, ptr %11, align 4, !tbaa !60
  %276 = add nsw i32 %275, 1
  store i32 %276, ptr %11, align 4, !tbaa !60
  br label %191, !llvm.loop !142

277:                                              ; preds = %194
  br label %278

278:                                              ; preds = %277, %189
  br label %279

279:                                              ; preds = %278, %106
  call void @llvm.lifetime.start.p0(i64 4, ptr %12) #10
  store i32 0, ptr %12, align 4, !tbaa !60
  br label %280

280:                                              ; preds = %320, %279
  %281 = load i32, ptr %12, align 4, !tbaa !60
  %282 = icmp slt i32 %281, 64
  br i1 %282, label %284, label %283

283:                                              ; preds = %280
  call void @llvm.lifetime.end.p0(i64 4, ptr %12) #10
  br label %323

284:                                              ; preds = %280
  call void @llvm.lifetime.start.p0(i64 4, ptr %13) #10
  %285 = load i32, ptr %12, align 4, !tbaa !60
  %286 = sext i32 %285 to i64
  %287 = getelementptr inbounds [64 x i8], ptr @ff_zigzag_direct, i64 0, i64 %286
  %288 = load i8, ptr %287, align 1, !tbaa !94
  %289 = zext i8 %288 to i32
  store i32 %289, ptr %13, align 4, !tbaa !60
  %290 = load i32, ptr %13, align 4, !tbaa !60
  %291 = sext i32 %290 to i64
  %292 = getelementptr inbounds [64 x i32], ptr %5, i64 0, i64 %291
  %293 = load i32, ptr %292, align 4, !tbaa !60
  %294 = load i32, ptr %13, align 4, !tbaa !60
  %295 = sdiv i32 %294, 8
  %296 = and i32 %295, 1
  %297 = icmp ne i32 %296, 0
  %298 = select i1 %297, i32 -1, i32 1
  %299 = mul nsw i32 %293, %298
  %300 = load ptr, ptr %3, align 8, !tbaa !29
  %301 = getelementptr inbounds nuw %struct.AGMContext, ptr %300, i32 0, i32 22
  %302 = load i32, ptr %12, align 4, !tbaa !60
  %303 = sext i32 %302 to i64
  %304 = getelementptr inbounds [64 x i32], ptr %301, i64 0, i64 %303
  store i32 %299, ptr %304, align 4, !tbaa !60
  %305 = load i32, ptr %13, align 4, !tbaa !60
  %306 = sext i32 %305 to i64
  %307 = getelementptr inbounds [64 x i32], ptr %6, i64 0, i64 %306
  %308 = load i32, ptr %307, align 4, !tbaa !60
  %309 = load i32, ptr %13, align 4, !tbaa !60
  %310 = sdiv i32 %309, 8
  %311 = and i32 %310, 1
  %312 = icmp ne i32 %311, 0
  %313 = select i1 %312, i32 -1, i32 1
  %314 = mul nsw i32 %308, %313
  %315 = load ptr, ptr %3, align 8, !tbaa !29
  %316 = getelementptr inbounds nuw %struct.AGMContext, ptr %315, i32 0, i32 23
  %317 = load i32, ptr %12, align 4, !tbaa !60
  %318 = sext i32 %317 to i64
  %319 = getelementptr inbounds [64 x i32], ptr %316, i64 0, i64 %318
  store i32 %314, ptr %319, align 4, !tbaa !60
  call void @llvm.lifetime.end.p0(i64 4, ptr %13) #10
  br label %320

320:                                              ; preds = %284
  %321 = load i32, ptr %12, align 4, !tbaa !60
  %322 = add nsw i32 %321, 1
  store i32 %322, ptr %12, align 4, !tbaa !60
  br label %280, !llvm.loop !143

323:                                              ; preds = %283
  call void @llvm.lifetime.end.p0(i64 8, ptr %7) #10
  call void @llvm.lifetime.end.p0(i64 256, ptr %6) #10
  call void @llvm.lifetime.end.p0(i64 256, ptr %5) #10
  ret void
}