; Function Attrs: nofree norecurse nosync nounwind memory(argmem: readwrite) uwtable
define internal fastcc void @compute_quant_matrix(ptr noundef captures(none) %0, double noundef %1) unnamed_addr #8 {
  %3 = alloca [64 x i32], align 16
  %4 = alloca [64 x i32], align 16
  call void @llvm.lifetime.start.p0(i64 256, ptr nonnull %3) #13
  call void @llvm.lifetime.start.p0(i64 256, ptr nonnull %4) #13
  %5 = tail call nsz double @llvm.fabs.f64(double %1)
  %6 = fsub nsz double 1.000000e+00, %5
  %7 = getelementptr inbounds nuw i8, ptr %0, i64 72
  %8 = load i32, ptr %7, align 8, !tbaa !57
  %.not = icmp eq i32 %8, 0
  br i1 %.not, label %9, label %30

9:                                                ; preds = %2
  %10 = getelementptr inbounds nuw i8, ptr %0, i64 116
  %11 = load i32, ptr %10, align 4, !tbaa !88
  %12 = and i32 %11, 2
  %.not72 = icmp eq i32 %12, 0
  br i1 %.not72, label %30, label %13

13:                                               ; preds = %9
  %14 = fcmp nsz ult double %1, 0.000000e+00
  br i1 %14, label %.preheader79, label %.preheader81

.preheader81:                                     ; preds = %13
  %15 = fmul nsz double %6, 1.600000e+01
  %16 = fcmp nsz olt double %15, 1.000000e+00
  %17 = select nsz i1 %16, double 1.000000e+00, double %15
  %18 = fptosi double %17 to i32
  br label %24

.preheader79:                                     ; preds = %13
  %19 = fneg nsz double %1
  %20 = tail call nsz double @llvm.fmuladd.f64(double %19, double 3.200000e+01, double 1.600000e+01)
  %21 = fcmp nsz olt double %20, 1.000000e+00
  %22 = select nsz i1 %21, double 1.000000e+00, double %20
  %23 = fptosi double %22 to i32
  br label %27

24:                                               ; preds = %.preheader81, %24
  %indvars.iv = phi i64 [ 0, %.preheader81 ], [ %indvars.iv.next, %24 ]
  %25 = getelementptr inbounds nuw [64 x i32], ptr %3, i64 0, i64 %indvars.iv
  store i32 %18, ptr %25, align 4, !tbaa !72
  %26 = getelementptr inbounds nuw [64 x i32], ptr %4, i64 0, i64 %indvars.iv
  store i32 %18, ptr %26, align 4, !tbaa !72
  %indvars.iv.next = add nuw nsw i64 %indvars.iv, 1
  %exitcond.not = icmp eq i64 %indvars.iv.next, 64
  br i1 %exitcond.not, label %.loopexit, label %24, !llvm.loop !125

27:                                               ; preds = %.preheader79, %27
  %indvars.iv92 = phi i64 [ 0, %.preheader79 ], [ %indvars.iv.next93, %27 ]
  %28 = getelementptr inbounds nuw [64 x i32], ptr %3, i64 0, i64 %indvars.iv92
  store i32 %23, ptr %28, align 4, !tbaa !72
  %29 = getelementptr inbounds nuw [64 x i32], ptr %4, i64 0, i64 %indvars.iv92
  store i32 %23, ptr %29, align 4, !tbaa !72
  %indvars.iv.next93 = add nuw nsw i64 %indvars.iv92, 1
  %exitcond95.not = icmp eq i64 %indvars.iv.next93, 64
  br i1 %exitcond95.not, label %.loopexit, label %27, !llvm.loop !126

30:                                               ; preds = %9, %2
  %31 = fcmp nsz ult double %1, 0.000000e+00
  br i1 %31, label %.preheader, label %.preheader77

.preheader77:                                     ; preds = %30, %.preheader77
  %indvars.iv96 = phi i64 [ %indvars.iv.next97, %.preheader77 ], [ 0, %30 ]
  %indvars.iv96.tr = trunc i64 %indvars.iv96 to i32
  %32 = shl i32 %indvars.iv96.tr, 3
  %33 = and i32 %32, 56
  %34 = trunc nuw nsw i64 %indvars.iv96 to i32
  %35 = lshr i32 %34, 3
  %36 = or disjoint i32 %33, %35
  %37 = zext nneg i32 %36 to i64
  %38 = getelementptr inbounds nuw [64 x i8], ptr @ff_mjpeg_std_luminance_quant_tbl, i64 0, i64 %37
  %39 = load i8, ptr %38, align 1, !tbaa !52
  %40 = uitofp i8 %39 to double
  %41 = fmul nsz double %6, %40
  %.inv = fcmp nsz ole double %41, 1.000000e+00
  %42 = select nsz i1 %.inv, double 1.000000e+00, double %41
  %43 = fptosi double %42 to i32
  %44 = getelementptr inbounds nuw [64 x i32], ptr %3, i64 0, i64 %indvars.iv96
  store i32 %43, ptr %44, align 4, !tbaa !72
  %45 = getelementptr inbounds nuw [64 x i8], ptr @ff_mjpeg_std_chrominance_quant_tbl, i64 0, i64 %37
  %46 = load i8, ptr %45, align 1, !tbaa !52
  %47 = uitofp i8 %46 to double
  %48 = fmul nsz double %6, %47
  %.inv74 = fcmp nsz ole double %48, 1.000000e+00
  %49 = select nsz i1 %.inv74, double 1.000000e+00, double %48
  %50 = fptosi double %49 to i32
  %51 = getelementptr inbounds nuw [64 x i32], ptr %4, i64 0, i64 %indvars.iv96
  store i32 %50, ptr %51, align 4, !tbaa !72
  %indvars.iv.next97 = add nuw nsw i64 %indvars.iv96, 1
  %exitcond99.not = icmp eq i64 %indvars.iv.next97, 64
  br i1 %exitcond99.not, label %.loopexit, label %.preheader77, !llvm.loop !127

.preheader:                                       ; preds = %30, %.preheader
  %indvars.iv100 = phi i64 [ %indvars.iv.next101, %.preheader ], [ 0, %30 ]
  %indvars.iv100.tr = trunc i64 %indvars.iv100 to i32
  %52 = shl i32 %indvars.iv100.tr, 3
  %53 = and i32 %52, 56
  %54 = trunc nuw nsw i64 %indvars.iv100 to i32
  %55 = lshr i32 %54, 3
  %56 = or disjoint i32 %53, %55
  %57 = zext nneg i32 %56 to i64
  %58 = getelementptr inbounds nuw [64 x i8], ptr @ff_mjpeg_std_luminance_quant_tbl, i64 0, i64 %57
  %59 = load i8, ptr %58, align 1, !tbaa !52
  %60 = xor i8 %59, -1
  %61 = uitofp i8 %60 to double
  %62 = fneg nsz double %61
  %63 = tail call nsz double @llvm.fmuladd.f64(double %62, double %6, double 2.550000e+02)
  %.inv75 = fcmp nsz ole double %63, 1.000000e+00
  %64 = select nsz i1 %.inv75, double 1.000000e+00, double %63
  %65 = fptosi double %64 to i32
  %66 = getelementptr inbounds nuw [64 x i32], ptr %3, i64 0, i64 %indvars.iv100
  store i32 %65, ptr %66, align 4, !tbaa !72
  %67 = getelementptr inbounds nuw [64 x i8], ptr @ff_mjpeg_std_chrominance_quant_tbl, i64 0, i64 %57
  %68 = load i8, ptr %67, align 1, !tbaa !52
  %69 = xor i8 %68, -1
  %70 = uitofp i8 %69 to double
  %71 = fneg nsz double %70
  %72 = tail call nsz double @llvm.fmuladd.f64(double %71, double %6, double 2.550000e+02)
  %.inv76 = fcmp nsz ole double %72, 1.000000e+00
  %73 = select nsz i1 %.inv76, double 1.000000e+00, double %72
  %74 = fptosi double %73 to i32
  %75 = getelementptr inbounds nuw [64 x i32], ptr %4, i64 0, i64 %indvars.iv100
  store i32 %74, ptr %75, align 4, !tbaa !72
  %indvars.iv.next101 = add nuw nsw i64 %indvars.iv100, 1
  %exitcond103.not = icmp eq i64 %indvars.iv.next101, 64
  br i1 %exitcond103.not, label %.loopexit, label %.preheader, !llvm.loop !128

.loopexit:                                        ; preds = %24, %27, %.preheader77, %.preheader
  %76 = getelementptr inbounds nuw i8, ptr %0, i64 192
  %77 = getelementptr inbounds nuw i8, ptr %0, i64 448
  br label %79

78:                                               ; preds = %79
  call void @llvm.lifetime.end.p0(i64 256, ptr nonnull %4) #13
  call void @llvm.lifetime.end.p0(i64 256, ptr nonnull %3) #13
  ret void

79:                                               ; preds = %.loopexit, %79
  %indvars.iv104 = phi i64 [ 0, %.loopexit ], [ %indvars.iv.next105, %79 ]
  %80 = getelementptr inbounds nuw [64 x i8], ptr @ff_zigzag_direct, i64 0, i64 %indvars.iv104
  %81 = load i8, ptr %80, align 1, !tbaa !52
  %82 = zext i8 %81 to i64
  %83 = getelementptr inbounds nuw [64 x i32], ptr %3, i64 0, i64 %82
  %84 = load i32, ptr %83, align 4, !tbaa !72
  %85 = and i8 %81, 8
  %.not73 = icmp eq i8 %85, 0
  %86 = select i1 %.not73, i32 1, i32 -1
  %87 = mul nsw i32 %86, %84
  %88 = getelementptr inbounds nuw [64 x i32], ptr %76, i64 0, i64 %indvars.iv104
  store i32 %87, ptr %88, align 4, !tbaa !72
  %89 = getelementptr inbounds nuw [64 x i32], ptr %4, i64 0, i64 %82
  %90 = load i32, ptr %89, align 4, !tbaa !72
  %91 = mul nsw i32 %90, %86
  %92 = getelementptr inbounds nuw [64 x i32], ptr %77, i64 0, i64 %indvars.iv104
  store i32 %91, ptr %92, align 4, !tbaa !72
  %indvars.iv.next105 = add nuw nsw i64 %indvars.iv104, 1
  %exitcond107.not = icmp eq i64 %indvars.iv.next105, 64
  br i1 %exitcond107.not, label %78, label %79, !llvm.loop !129
}